ccopy_reg
_reconstructor
p0
(csklearn.cross_validation
ShuffleSplit
p1
c__builtin__
object
p2
Ntp3
Rp4
(dp5
S'n_iter'
p6
I5
sS'n_train'
p7
I750528
sS'n'
p8
I938160
sS'train_size'
p9
NsS'random_state'
p10
I123
sS'test_size'
p11
F0.2
sS'n_test'
p12
I187632
sb.